target datalayout = "e-m:e-p270:32:32-p271:32:32-p272:64:64-i64:64-i128:128-f80:128-n8:16:32:64-S128"
target triple = "x86_64-pc-linux-gnu"

%struct._ir_code_buffer = type { ptr, ptr, ptr }

; Function Attrs: nounwind uwtable
define hidden zeroext i1 @ir_needs_thunk(ptr noundef %0, ptr noundef %1) #0 {
  %3 = alloca ptr, align 8
  %4 = alloca ptr, align 8
  store ptr %0, ptr %3, align 8
  store ptr %1, ptr %4, align 8
  %5 = load ptr, ptr %3, align 8
  %6 = icmp ne ptr %5, null
  br i1 %6, label %7, label %45

7:                                                ; preds = %2
  %8 = load ptr, ptr %4, align 8
  %9 = load ptr, ptr %3, align 8
  %10 = getelementptr inbounds %struct._ir_code_buffer, ptr %9, i32 0, i32 0
  %11 = load ptr, ptr %10, align 8
  %12 = ptrtoint ptr %8 to i64
  %13 = ptrtoint ptr %11 to i64
  %14 = sub i64 %12, %13
  %15 = icmp sle i64 %14, 2147483647
  br i1 %15, label %16, label %45

16:                                               ; preds = %7
  %17 = load ptr, ptr %4, align 8
  %18 = load ptr, ptr %3, align 8
  %19 = getelementptr inbounds %struct._ir_code_buffer, ptr %18, i32 0, i32 0
  %20 = load ptr, ptr %19, align 8
  %21 = ptrtoint ptr %17 to i64
  %22 = ptrtoint ptr %20 to i64
  %23 = sub i64 %21, %22
  %24 = icmp sge i64 %23, -2147483648
  br i1 %24, label %25, label %45

25:                                               ; preds = %16
  %26 = load ptr, ptr %4, align 8
  %27 = load ptr, ptr %3, align 8
  %28 = getelementptr inbounds %struct._ir_code_buffer, ptr %27, i32 0, i32 1
  %29 = load ptr, ptr %28, align 8
  %30 = ptrtoint ptr %26 to i64
  %31 = ptrtoint ptr %29 to i64
  %32 = sub i64 %30, %31
  %33 = icmp sle i64 %32, 2147483647
  br i1 %33, label %34, label %43

34:                                               ; preds = %25
  %35 = load ptr, ptr %4, align 8
  %36 = load ptr, ptr %3, align 8
  %37 = getelementptr inbounds %struct._ir_code_buffer, ptr %36, i32 0, i32 1
  %38 = load ptr, ptr %37, align 8
  %39 = ptrtoint ptr %35 to i64
  %40 = ptrtoint ptr %38 to i64
  %41 = sub i64 %39, %40
  %42 = icmp sge i64 %41, -2147483648
  br label %43

43:                                               ; preds = %34, %25
  %44 = phi i1 [ false, %25 ], [ %42, %34 ]
  br label %45

45:                                               ; preds = %43, %16, %7, %2
  %46 = phi i1 [ false, %16 ], [ false, %7 ], [ false, %2 ], [ %44, %43 ]
  %47 = xor i1 %46, true
  ret i1 %47
}