; Function Attrs: mustprogress nofree norecurse nosync nounwind willreturn memory(argmem: read) uwtable
define hidden zeroext i1 @ir_needs_thunk(ptr noundef readonly %0, ptr noundef %1) local_unnamed_addr #12 {
  %.not = icmp eq ptr %0, null
  br i1 %.not, label %15, label %3

3:                                                ; preds = %2
  %4 = load ptr, ptr %0, align 8
  %5 = ptrtoint ptr %1 to i64
  %6 = ptrtoint ptr %4 to i64
  %7 = add i64 %5, 2147483648
  %8 = sub i64 %7, %6
  %or.cond = icmp ult i64 %8, 4294967296
  br i1 %or.cond, label %9, label %15

9:                                                ; preds = %3
  %10 = getelementptr inbounds i8, ptr %0, i64 8
  %11 = load ptr, ptr %10, align 8
  %12 = ptrtoint ptr %11 to i64
  %13 = add i64 %5, -2147483648
  %14 = sub i64 %13, %12
  %spec.select = icmp ult i64 %14, -4294967296
  br label %15

15:                                               ; preds = %9, %3, %2
  %16 = phi i1 [ true, %3 ], [ true, %2 ], [ %spec.select, %9 ]
  ret i1 %16
}